(lp0
(lp1
S'uint8'
p2
aa(lp3
S'CmdHeader'
p4
aa(lp5
S'[CFE_SB_CMD_HDR_SIZE]'
p6
aa(lp7
S'CFE_TIME_SysTime_tAtToneMETMET at time of tone.CFE_TIME_SysTime_tAtToneSTCFSTCF at time of tone.int16AtToneLeapsLeap Seconds at time of tone.int16AtToneStateClock state at time of tone.'
p8
aa.