(lp0
(lp1
S'uint32'
p2
aS'uint32'
p3
aS'uint32'
p4
aS'uint32'
p5
aa(lp6
S'PoolSize'
p7
aS'NumBlocksRequested'
p8
aS'CheckErrCtr'
p9
aS'NumFreeBytes'
p10
aa(lp11
S''
p12
ag12
ag12
ag12
aa(lp13
S'Size of Memory Pool (in bytes).'
p14
aS'Number of times a memory block has been allocated.'
p15
aS'Number of errors detected when freeing a memory block.'
p16
aS'Number of bytes never allocated to a block. CFE_ES_BlockStats_t BlockStats [CFE_ES_MAX_MEMPOOL_BLOCK_SIZES] Contains stats on each block size.'
p17
aa(lp18
S'--word'
p19
ag19
ag19
ag19
aa(lp20
g12
ag12
ag12
ag12
aa.