(lp0
(lp1
S'uint8'
p2
aS'uint8'
p3
aS'uint16'
p4
aS'uint16'
p5
aS'uint16'
p6
aS'uint32'
p7
aS'char'
p8
aS'uint8'
p9
aS'uint8'
p10
aS'uint8'
p11
aS'uint8'
p12
aS'uint8'
p13
aS'char'
p14
aS'char'
p15
aS'char'
p16
aS'char'
p17
aa(lp18
S'CmdCounter'
p19
aS'ErrCounter'
p20
aS'NumTables'
p21
aS'NumLoadPending'
p22
aS'ValidationCtr'
p23
aS'LastValCrc'
p24
aS'LastValTableName'
p25
aS'SuccessValCtr'
p26
aS'FailedValCtr'
p27
aS'NumValRequests'
p28
aS'NumFreeSharedBufs'
p29
aS'ByteAlignPad1'
p30
aS'LastUpdatedTbl'
p31
aS'LastFileLoaded'
p32
aS'LastFileDumped'
p33
aS'LastTableLoaded'
p34
aa(lp35
S''
p36
ag36
ag36
ag36
ag36
ag36
aS'[CFE_TBL_MAX_FULL_NAME_LEN]'
p37
ag36
ag36
ag36
ag36
ag36
aS'[CFE_TBL_MAX_FULL_NAME_LEN]'
p38
aS'[OS_MAX_PATH_LEN]'
p39
aS'[OS_MAX_PATH_LEN]'
p40
aS'[CFE_TBL_MAX_FULL_NAME_LEN]'
p41
aa(lp42
S'Count of valid commands received.'
p43
aS'Count of invalid commands received.'
p44
aS'Number of Tables Registered.'
p45
aS'Number of Tables pending on Applications for their update.'
p46
aS'Number of completed table validations.'
p47
aS'Data Integrity Value computed for last table validated. int32 LastValStatus Returned status from validation function for last table validated. boolean ActiveBuffer Indicator of whether table buffer validated was 0=Inactive, 1=Active.'
p48
aS'Name of last table validated.'
p49
aS'Total number of successful table validations.'
p50
aS'Total number of unsuccessful table validations.'
p51
aS'Number of times Table Services has requested validations from Apps.'
p52
aS'Number of free Shared Working Buffers.'
p53
aS"Spare byte to ensure longword alignment. CFE_ES_MemHandle_t MemPoolHandle Handle to TBL's memory pool. CFE_TIME_SysTime_t LastUpdateTime Time of last table update."
p54
aS'Name of the last table updated.'
p55
aS'Path and Name of last table image file loaded.'
p56
aS'Path and Name of last file dumped to.'
p57
aS'Name of the last table loaded.'
p58
aa(lp59
S'--byte'
p60
ag60
aS'--half'
p61
ag61
ag61
aS'--word'
p62
aS'--string'
p63
ag60
ag60
ag60
ag60
ag60
ag63
ag63
ag63
ag63
aa(lp64
g36
ag36
ag36
ag36
ag36
ag36
aS'16'
p65
ag36
ag36
ag36
ag36
ag36
aS'16'
p66
aS'64'
p67
aS'64'
p68
aS'16'
p69
aa.