(lp0
(lp1
S'EVS_AppData_t'
p2
aS'uint32'
p3
aS'uint32'
p4
aa(lp5
S'AppData'
p6
aS'EVS_SharedDataMutexID'
p7
aS'EVS_AppID'
p8
aa(lp9
S'[CFE_ES_MAX_APPLICATIONS]'
p10
aS''
p11
ag11
aa(lp12
S'CFE_EVS_Log_t * EVS_LogPtr CFE_EVS_TlmPkt_t EVS_TlmPkt CFE_SB_PipeId_t EVS_CommandPipe'
p13
ag11
ag11
aa(lp14
S'--string'
p15
aS'--word'
p16
ag16
aa(lp17
S'32'
p18
ag11
ag11
aa.