(lp0
(lp1
S'uint32'
p2
aS'char'
p3
aa(lp4
S'ProcessorId'
p5
aS'AppName'
p6
aa(lp7
S''
p8
aS'[OS_MAX_API_NAME]'
p9
aa(lp10
S'Processor Id from which the message was sent.'
p11
aS'Application that sent the message.'
p12
aa(lp13
S'--word'
p14
aS'--string'
p15
aa(lp16
g8
aS'20'
p17
aa.