(lp0
(lp1
S'uint32'
p2
aS'uint16'
p3
aS'uint8'
p4
aS'uint8'
p5
aa(lp6
S'AppID'
p7
aS'AppMessageSentCounter'
p8
aS'AppEnableStatus'
p9
aS'Padding'
p10
aa(lp11
S''
p12
ag12
ag12
ag12
aa(lp13
S'Numerical application identifier.'
p14
aS'Application message sent counter.'
p15
aS'Application event service enable status.'
p16
aS'Padding for 32 bit boundary.'
p17
aa(lp18
S'--word'
p19
aS'--half'
p20
aS'--byte'
p21
ag21
aa(lp22
g12
ag12
ag12
ag12
aa.