(lp0
(lp1
S'uint32'
p2
aS'uint32'
p3
aS'char'
p4
aa(lp5
S'DataToWrite'
p6
aS'ChildID'
p7
aS'DataFileName'
p8
aa(lp9
S''
p10
ag10
aS'[OS_MAX_PATH_LEN]'
p11
aa(lp12
g10
ag10
aS'int32 DataFileDescriptor'
p13
aa(lp14
S'--word'
p15
ag15
aS'--string'
p16
aa(lp17
g10
ag10
aS'64'
p18
aa.