(lp0
(lp1
S'uint32'
p2
aS'uint32'
p3
aS'uint32'
p4
aa(lp5
S'PktSegment'
p6
aS'TotalSegments'
p7
aS'Entries'
p8
aa(lp9
S''
p10
ag10
ag10
aa(lp11
S'Pkt number(starts at 1) in the series.'
p12
aS'Total number of pkts needed to complete the request.'
p13
aS'Number of entries in the pkt. CFE_SB_SubEntries_t Entry [CFE_SB_SUB_ENTRIES_PER_PKT] Array of CFE_SB_SubEntries_t entries.'
p14
aa(lp15
S'--word'
p16
ag16
ag16
aa(lp17
g10
ag10
ag10
aa.