(lp0
(lp1
S'uint16'
p2
aS'uint16'
p3
aa(lp4
S'MsgId'
p5
aS'Index'
p6
aa(lp7
S''
p8
ag8
aa(lp9
S'Message Id which has been subscribed to.'
p10
aS'Routing table index where pipe destinations are found.'
p11
aa(lp12
S'--half'
p13
ag13
aa(lp14
g8
ag8
aa.