(lp0
(lp1
S'uint32'
p2
aS'uint32'
p3
aS'uint32'
p4
aS'uint32'
p5
aS'char'
p6
aS'char'
p7
aS'char'
p8
aS'uint8'
p9
aa(lp10
S'Size'
p11
aS'Crc'
p12
aS'FileCreateTimeSecs'
p13
aS'FileCreateTimeSubSecs'
p14
aS'Name'
p15
aS'LastFileLoaded'
p16
aS'OwnerAppName'
p17
aS'ByteAlign4'
p18
aa(lp19
S''
p20
ag20
ag20
ag20
aS'[CFE_TBL_MAX_FULL_NAME_LEN]'
p21
aS'[OS_MAX_PATH_LEN]'
p22
aS'[OS_MAX_API_NAME]'
p23
ag20
aa(lp24
S'Size, in bytes, of Table.'
p25
aS"Most recently calculated CRC of Table. void * ActiveBufferAddr Address of Active Buffer. void * InactiveBufferAddr Address of Inactive Buffer. CFE_TBL_CallbackFuncPtr_t ValidationFuncPtr Ptr to Owner App's function that validates tbl contents. CFE_TIME_SysTime_t TimeOfLastUpdate Time when Table was last updated."
p26
aS'File creation time from last file loaded into table.'
p27
aS'File creation time from last file loaded into table. boolean TableLoadedOnce Flag indicating whether table has been loaded once or not. boolean LoadPending Flag indicating an inactive buffer is ready to be copied. boolean DumpOnly Flag indicating Table is NOT to be loaded. boolean DblBuffered Flag indicating Table has a dedicated inactive buffer.'
p28
aS'Processor specific table name.'
p29
aS'Filename of last file loaded into table.'
p30
aS'Name of owning application. boolean Critical Indicates whether table is Critical or not.'
p31
aS'Spare byte to maintain byte alignment.'
p32
aa(lp33
S'--word'
p34
ag34
ag34
ag34
aS'--string'
p35
ag35
ag35
aS'--byte'
p36
aa(lp37
g20
ag20
ag20
ag20
aS'16'
p38
aS'64'
p39
aS'20'
p40
ag20
aa.