(lp0
(lp1
S'uint32'
p2
aS'uint8'
p3
aS'uint32'
p4
aa(lp5
S'MainTaskId'
p6
aS'MainTaskName'
p7
aS'NumOfChildTasks'
p8
aa(lp9
S''
p10
aS'[OS_MAX_API_NAME]'
p11
ag10
aa(lp12
g10
ag10
ag10
aa(lp13
S'--word'
p14
aS'--string'
p15
ag14
aa(lp16
g10
aS'20'
p17
ag10
aa.