(lp0
(lp1
S'char'
p2
aS'uint8'
p3
aS'uint8'
p4
aS'uint16'
p5
aa(lp6
S'AppName'
p7
aS'ActiveFlag'
p8
aS'EventTypesActiveFlag'
p9
aS'EventCount'
p10
aa(lp11
S'[OS_MAX_API_NAME]'
p12
aS''
p13
ag13
ag13
aa(lp14
g13
ag13
ag13
aS'EVS_BinFilter_t Filters [CFE_EVS_MAX_EVENT_FILTERS]'
p15
aa(lp16
S'--string'
p17
aS'--byte'
p18
ag18
aS'--half'
p19
aa(lp20
S'20'
p21
ag13
ag13
ag13
aa.