(lp0
(lp1
S'CCSDS_PriHdr_t'
p2
aa(lp3
S'Pri'
p4
aa(lp5
S''
p6
aa(lp7
S'CCSDS Primary Header CCSDS_PriHdr_t . CCSDS_TlmSecHdr_t Sec CCSDS Telemetry Secondary Header CCSDS_TlmSecHdr_t .'
p8
aa(lp9
g6
aa(lp10
g6
aa.