(lp0
(lp1
S'uint16'
p2
aS'uint32'
p3
aS'uint32'
p4
aS'uint32'
p5
aS'uint32'
p6
aS'uint32'
p7
aS'uint32'
p8
aS'uint32'
p9
aS'uint32'
p10
aS'uint32'
p11
aS'uint32'
p12
aS'uint32'
p13
aS'uint32'
p14
aS'uint32'
p15
aS'uint32'
p16
aS'uint32'
p17
aS'uint32'
p18
aa(lp19
S'ClockStateFlags'
p20
aS'ToneMatchCount'
p21
aS'ToneMatchErrors'
p22
aS'ToneSignalCount'
p23
aS'ToneDataCount'
p24
aS'ToneIntCount'
p25
aS'ToneIntErrors'
p26
aS'ToneTaskCount'
p27
aS'VersionCount'
p28
aS'LocalIntCount'
p29
aS'LocalTaskCount'
p30
aS'VirtualMET'
p31
aS'MinElapsed'
p32
aS'MaxElapsed'
p33
aS'ToneOverLimit'
p34
aS'ToneUnderLimit'
p35
aS'DataStoreStatus'
p36
aa(lp37
S''
p38
ag38
ag38
ag38
ag38
ag38
ag38
ag38
ag38
ag38
ag38
ag38
ag38
ag38
ag38
ag38
ag38
aa(lp39
S'Clock State Flags. int16 OneTimeDirection One time STCF adjustment direction (Add = 1, Sub = 2). int16 OneHzDirection 1Hz STCF adjustment direction int16 DelayDirection Client latency adjustment direction. CFE_TIME_SysTime_t OneTimeAdjust Previous one-time STCF adjustment. CFE_TIME_SysTime_t OneHzAdjust Current 1Hz STCF adjustment. CFE_TIME_SysTime_t ToneSignalLatch Local Clock latched at most recent tone signal. CFE_TIME_SysTime_t ToneDataLatch Local Clock latched at arrival of tone data.'
p40
aS'Tone signal / data verification count.'
p41
aS'Tone signal / data verification error count.'
p42
aS'Tone signal detected SB message count.'
p43
aS'Time at the tone data SB message count.'
p44
aS'Tone signal ISR execution count.'
p45
aS'Tone signal ISR error count.'
p46
aS'Tone task execution count.'
p47
aS'Count of mods to time at tone reference data (version).'
p48
aS'Local 1Hz ISR execution count.'
p49
aS'Local 1Hz task execution count.'
p50
aS'Software MET.'
p51
aS'Min tone signal / data pkt arrival window (Sub-seconds).'
p52
aS'Max tone signal / data pkt arrival window (Sub-seconds). CFE_TIME_SysTime_t MaxLocalClock Max local clock value before rollover.'
p53
aS'Max between tone signal interrupts.'
p54
aS'Min between tone signal interrupts.'
p55
aS'Data Store status (preserved across processor reset).'
p56
aa(lp57
S'--half'
p58
aS'--word'
p59
ag59
ag59
ag59
ag59
ag59
ag59
ag59
ag59
ag59
ag59
ag59
ag59
ag59
ag59
ag59
aa(lp60
g38
ag38
ag38
ag38
ag38
ag38
ag38
ag38
ag38
ag38
ag38
ag38
ag38
ag38
ag38
ag38
ag38
aa.