(lp0
(lp1
S'uint32'
p2
aS'uint32'
p3
aS'uint32'
p4
aa(lp5
S'Data'
p6
aS'TimerUpper32'
p7
aS'TimerLower32'
p8
aa(lp9
S''
p10
ag10
ag10
aa(lp11
g10
ag10
ag10
aa(lp12
S'--word'
p13
ag13
ag13
aa(lp14
g10
ag10
ag10
aa.