(lp0
(lp1
S'char'
p2
aa(lp3
S'DumpFilename'
p4
aa(lp5
S'[OS_MAX_PATH_LEN]'
p6
aa(lp7
S'ASCII text string of full path and filename of file CDS Registry is to be written.'
p8
aa(lp9
S'--string'
p10
aa(lp11
S'64'
p12
aa.