(lp0
(lp1
S'uint8'
p2
aS'uint8'
p3
aa(lp4
S'CmdString'
p5
aS'OutputFilename'
p6
aa(lp7
S'[CFE_ES_MAX_SHELL_CMD]'
p8
aS'[OS_MAX_PATH_LEN]'
p9
aa(lp10
S'ASCII text string containing shell command to be executed.'
p11
aS'Filename where shell command output is to be written.'
p12
aa(lp13
S'--string'
p14
ag14
aa(lp15
S'64'
p16
aS'64'
p17
aa.