(lp0
(lp1
S'uint8'
p2
aS'uint8'
p3
aa(lp4
S'Application'
p5
aS'AppFileName'
p6
aa(lp7
S'[OS_MAX_API_NAME]'
p8
aS'[OS_MAX_PATH_LEN]'
p9
aa(lp10
S'ASCII text string containing Application Name.'
p11
aS"Full path and filename of Application's executable image."
p12
aa(lp13
S'--string'
p14
ag14
aa(lp15
S'20'
p16
aS'64'
p17
aa.