(lp0
(lp1
S'CFE_SB_PipeId_t'
p2
aS'uint8'
p3
aS'uint16'
p4
aS'uint16'
p5
aS'uint16'
p6
aS'uint8'
p7
aS'uint8'
p8
aa(lp9
S'PipeId'
p10
aS'Active'
p11
aS'MsgId2PipeLim'
p12
aS'BuffCount'
p13
aS'DestCnt'
p14
aS'Scope'
p15
aS'Spare'
p16
aa(lp17
S''
p18
ag18
ag18
ag18
ag18
ag18
aS'[3]'
p19
aa(lp20
g18
ag18
ag18
ag18
ag18
ag18
aS'void * Prev void * Next'
p21
aa(lp22
g18
aS'--byte'
p23
aS'--half'
p24
ag24
ag24
ag23
aS'--string'
p25
aa(lp26
g18
ag18
ag18
ag18
ag18
ag18
aS'3'
p27
aa.