(lp0
(lp1
S'CFE_ES_MemHandle_t'
p2
aS'uint8'
p3
aa(lp4
S'PoolHdl'
p5
aS'Partition'
p6
aa(lp7
S''
p8
aS'[CFE_SB_BUF_MEMORY_BYTES]'
p9
aa(lp10
g8
ag8
aa(lp11
g8
aS'--string'
p12
aa(lp13
g8
aS'524288'
p14
aa.