(lp0
(lp1
S'uint32'
p2
aS'uint32'
p3
aS'uint32'
p4
aS'uint32'
p5
aS'uint32'
p6
aS'uint32'
p7
aa(lp8
S'ResetType'
p9
aS'ResetSubtype'
p10
aS'BootSource'
p11
aS'ES_CausedReset'
p12
aS'ProcessorResetCount'
p13
aS'MaxProcessorResetCount'
p14
aa(lp15
S''
p16
ag16
ag16
ag16
ag16
ag16
aa(lp17
g16
ag16
ag16
ag16
ag16
ag16
aa(lp18
S'--word'
p19
ag19
ag19
ag19
ag19
ag19
aa(lp20
g16
ag16
ag16
ag16
ag16
ag16
aa.