(lp0
(lp1
S'char'
p2
aS'uint8'
p3
aS'uint8'
p4
aa(lp5
S'Message'
p6
aS'Spare1'
p7
aS'Spare2'
p8
aa(lp9
S'[CFE_EVS_MAX_MESSAGE_LENGTH]'
p10
aS''
p11
ag11
aa(lp12
S'Event message string.'
p13
aS'Structure padding.'
p14
aS'Structure padding.'
p15
aa(lp16
S'--string'
p17
aS'--byte'
p18
ag18
aa(lp19
S'122'
p20
ag11
ag11
aa.