(lp0
(lp1
S'uint32'
p2
aS'uint16'
p3
aa(lp4
S'Signature'
p5
aS'ClockSignal'
p6
aa(lp7
S''
p8
ag8
aa(lp9
S'Data validation signature used to verify data structure contents. int16 LeapSeconds Leap seconds value.'
p10
aS'Current clock signal selection. CFE_TIME_SysTime_t CurrentMET Current Mission Elapsed Time (MET). CFE_TIME_SysTime_t CurrentSTCF Current Spacecraft Time Correlation Factor (STCF). CFE_TIME_SysTime_t CurrentDelay Current time client delay value.'
p11
aa(lp12
S'--word'
p13
aS'--half'
p14
aa(lp15
g8
ag8
aa.