(lp0
(lp1
S'uint32'
p2
aS'uint32'
p3
aa(lp4
S'TriggerMaskNum'
p5
aS'TriggerMask'
p6
aa(lp7
S''
p8
ag8
aa(lp9
S'Index into array of Trigger Masks.'
p10
aS'New Mask for specified entry in array of Trigger Masks.'
p11
aa(lp12
S'--word'
p13
ag13
aa(lp14
g8
ag8
aa.