(lp0
(lp1
S'uint32'
p2
aa(lp3
S'InterruptId'
p4
aa(lp5
S''
p6
aa(lp7
S'Identifier for interrupt that device driver is attached to. void * IntInitFuncPtr Pointer to function used to initialize device. void * IntHWHandshakeFuncPtr Pointer to function executed when servicing device interrupts. void * IntIsrFuncPtr Pointer to function that performs most ISR processing but done in a task context.'
p8
aa(lp9
S'--word'
p10
aa(lp11
g6
aa.