(lp0
(lp1
S'uint32'
p2
aS'uint32'
p3
aS'uint32'
p4
aS'char'
p5
aa(lp6
S'Reserved'
p7
aS'Offset'
p8
aS'NumBytes'
p9
aS'TableName'
p10
aa(lp11
S''
p12
ag12
ag12
aS'[CFE_TBL_MAX_FULL_NAME_LEN]'
p13
aa(lp14
g12
ag12
ag12
ag12
aa(lp15
S'--word'
p16
ag16
ag16
aS'--string'
p17
aa(lp18
g12
ag12
ag12
aS'16'
p19
aa.