(lp0
(lp1
S'boolean'
p2
aS'uint32'
p3
aS'char'
p4
aa(lp5
S'RecordUsed'
p6
aS'Counter'
p7
aS'CounterName'
p8
aa(lp9
S''
p10
ag10
aS'[OS_MAX_API_NAME]'
p11
aa(lp12
g10
ag10
ag10
aa(lp13
S'--byte'
p14
aS'--word'
p15
aS'--string'
p16
aa(lp17
g10
ag10
aS'20'
p18
aa.