(lp0
(lp1
S'uint16'
p2
aS'uint16'
p3
aa(lp4
S'EventID'
p5
aS'Mask'
p6
aa(lp7
S''
p8
ag8
aa(lp9
S'Numerical event identifier.'
p10
aS'Binary filter mask value.'
p11
aa(lp12
S'--half'
p13
ag13
aa(lp14
g8
ag8
aa.