(lp0
(lp1
S'uint8'
p2
aS'uint8'
p3
aS'uint8'
p4
aa(lp5
S'AppName'
p6
aS'BitMask'
p7
aS'Spare'
p8
aa(lp9
S'[OS_MAX_API_NAME]'
p10
aS''
p11
ag11
aa(lp12
S'Application name to use in the command.'
p13
aS'BitMask to use in the command.'
p14
aS'Pad to even byte.'
p15
aa(lp16
S'--string'
p17
aS'--byte'
p18
ag18
aa(lp19
S'20'
p20
ag11
ag11
aa.