(lp0
(lp1
S'uint8'
p2
aa(lp3
S'ShellOutput'
p4
aa(lp5
S'[CFE_ES_MAX_SHELL_PKT]'
p6
aa(lp7
S'ASCII text string containing output from OS Shell that was received in response to an OS Shell Command.'
p8
aa(lp9
S'--string'
p10
aa(lp11
S'64'
p12
aa.