(lp0
(lp1
S'CFE_SB_MsgId_t'
p2
aS'uint16'
p3
aS'uint32'
p4
aa(lp5
S'MsgId'
p6
aS'UseCount'
p7
aS'Size'
p8
aa(lp9
S''
p10
ag10
ag10
aa(lp11
g10
ag10
aS'void * Buffer CFE_SB_SenderId_t Sender'
p12
aa(lp13
g10
aS'--half'
p14
aS'--word'
p15
aa(lp16
g10
ag10
ag10
aa.