(lp0
(lp1
S'uint8'
p2
aS'uint16'
p3
aa(lp4
S'AppName'
p5
aS'EventID'
p6
aa(lp7
S'[OS_MAX_API_NAME]'
p8
aS''
p9
aa(lp10
S'Application name to use in the command.'
p11
aS'Event ID to use in the command.'
p12
aa(lp13
S'--string'
p14
aS'--half'
p15
aa(lp16
S'20'
p17
ag9
aa.