(lp0
(lp1
S'uint32'
p2
aS'uint32'
p3
aa(lp4
S'FilterMaskNum'
p5
aS'FilterMask'
p6
aa(lp7
S''
p8
ag8
aa(lp9
S'Index into array of Filter Masks.'
p10
aS'New Mask for specified entry in array of Filter Masks.'
p11
aa(lp12
S'--word'
p13
ag13
aa(lp14
g8
ag8
aa.