(lp0
(lp1
S'uint32'
p2
aS'uint32'
p3
aS'uint8'
p4
aS'uint32'
p5
aS'uint8'
p6
aa(lp7
S'TaskId'
p8
aS'ExecutionCounter'
p9
aS'TaskName'
p10
aS'AppId'
p11
aS'AppName'
p12
aa(lp13
S''
p14
ag14
aS'[OS_MAX_API_NAME]'
p15
ag14
aS'[OS_MAX_API_NAME]'
p16
aa(lp17
S'Task Id.'
p18
ag14
aS'Task Execution Counter Task Name.'
p19
aS'Parent Application ID.'
p20
aS'Parent Application Name.'
p21
aa(lp22
S'--word'
p23
ag23
aS'--string'
p24
ag23
ag24
aa(lp25
g14
ag14
aS'20'
p26
ag14
aS'20'
p27
aa.