(lp0
(lp1
S'CFE_SB_MsgId_t'
p2
aa(lp3
S'MsgId'
p4
aa(lp5
S''
p6
aa(lp7
S'MsgId portion of the subscription. CFE_SB_Qos_t Qos Qos portion of the subscription. CFE_SB_PipeId_t Pipe PipeId portion of the subscription.'
p8
aa(lp9
g6
aa(lp10
g6
aa.