(lp0
(lp1
S'uint32'
p2
aS'uint32'
p3
aS'uint32'
p4
aS'uint32'
p5
aS'uint32'
p6
aS'char'
p7
aa(lp8
S'Size'
p9
aS'NumUsers'
p10
aS'FileCreateTimeSecs'
p11
aS'FileCreateTimeSubSecs'
p12
aS'Crc'
p13
aS'LastFileLoaded'
p14
aa(lp15
S''
p16
ag16
ag16
ag16
ag16
aS'[OS_MAX_PATH_LEN]'
p17
aa(lp18
S'Size, in bytes, of Table.'
p19
aS'Number of Apps with access to the table.'
p20
aS'File creation time from last file loaded into table.'
p21
aS'File creation time from last file loaded into table.'
p22
aS'Most recently calculated CRC by TBL services on table contents. CFE_TIME_SysTime_t TimeOfLastUpdate Time when Table was last updated. boolean TableLoadedOnce Flag indicating whether table has been loaded once or not. boolean DumpOnly Flag indicating Table is NOT to be loaded. boolean DblBuffered Flag indicating Table has a dedicated inactive buffer. boolean UserDefAddr Flag indicating Table address was defined by Owner Application. boolean Critical Flag indicating Table contents are maintained in a CDS.'
p23
aS'Filename of last file loaded into table.'
p24
aa(lp25
S'--word'
p26
ag26
ag26
ag26
ag26
aS'--string'
p27
aa(lp28
g16
ag16
ag16
ag16
ag16
aS'64'
p29
aa.