(lp0
(lp1
S'uint32'
p2
aS'uint32'
p3
aa(lp4
S'Seconds'
p5
aS'Subseconds'
p6
aa(lp7
S''
p8
ag8
aa(lp9
S'Number of seconds since epoch.'
p10
aS'Number of subseconds since epoch (LSB = 2^(-32) seconds).'
p11
aa(lp12
S'--word'
p13
ag13
aa(lp14
g8
ag8
aa.