(lp0
(lp1
S'uint8'
p2
aS'uint32'
p3
aa(lp4
S'Application'
p5
aS'PoolHandle'
p6
aa(lp7
S'[OS_MAX_API_NAME]'
p8
aS''
p9
aa(lp10
S'RESERVED - should be all zeroes'
p11
aS'Handle of Pool whose statistics are to be telemetered.'
p12
aa(lp13
S'--string'
p14
aS'--word'
p15
aa(lp16
S'20'
p17
ag9
aa.