(lp0
(lp1
S'uint8'
p2
aa(lp3
S'SubType'
p4
aa(lp5
S''
p6
aa(lp7
S'Subscription or Unsubscription. CFE_SB_MsgId_t MsgId MsgId subscribed or unsubscribe to. CFE_SB_Qos_t Qos Quality of Service, used only for interprocessor communication. CFE_SB_PipeId_t Pipe Destination pipe id to send above msg id.'
p8
aa(lp9
S'--byte'
p10
aa(lp11
g6
aa.