(lp0
(lp1
S'CFE_SB_MsgId_t'
p2
aS'uint16'
p3
aS'uint32'
p4
aa(lp5
S'MsgId'
p6
aS'Destinations'
p7
aS'SeqCnt'
p8
aa(lp9
S''
p10
ag10
ag10
aa(lp11
g10
ag10
aS'CFE_SB_DestinationD_t * ListHeadPtr'
p12
aa(lp13
g10
aS'--half'
p14
aS'--word'
p15
aa(lp16
g10
ag10
ag10
aa.