(lp0
(lp1
S'boolean'
p2
aS'uint32'
p3
aS'uint32'
p4
aS'uint32'
p5
aS'char'
p6
aa(lp7
S'RecordUsed'
p8
aS'AppId'
p9
aS'TaskId'
p10
aS'ExecutionCounter'
p11
aS'TaskName'
p12
aa(lp13
S''
p14
ag14
ag14
ag14
aS'[OS_MAX_API_NAME]'
p15
aa(lp16
g14
ag14
ag14
ag14
ag14
aa(lp17
S'--byte'
p18
aS'--word'
p19
ag19
ag19
aS'--string'
p20
aa(lp21
g14
ag14
ag14
ag14
aS'20'
p22
aa.