(lp0
(lp1
S'uint16'
p2
aS'char'
p3
aS'char'
p4
aa(lp5
S'ActiveTblFlag'
p6
aS'TableName'
p7
aS'DumpFilename'
p8
aa(lp9
S''
p10
aS'[CFE_TBL_MAX_FULL_NAME_LEN]'
p11
aS'[OS_MAX_PATH_LEN]'
p12
aa(lp13
S'CFE_TBL_INACTIVE_BUFFER =Inactive Table, CFE_TBL_ACTIVE_BUFFER =Active Table'
p14
aS'Full name of table to be dumped.'
p15
aS'Full Filename where data is to be written.'
p16
aa(lp17
S'--half'
p18
aS'--string'
p19
ag19
aa(lp20
g10
aS'16'
p21
aS'64'
p22
aa.