(lp0
(lp1
S'uint32'
p2
aS'uint32'
p3
aS'uint32'
p4
aS'uint32'
p5
aS'uint32'
p6
aa(lp7
S'MemoryType'
p8
aS'WordSize'
p9
aS'StartAddr'
p10
aS'Size'
p11
aS'Attributes'
p12
aa(lp13
S''
p14
ag14
ag14
ag14
ag14
aa(lp15
g14
ag14
ag14
ag14
ag14
aa(lp16
S'--word'
p17
ag17
ag17
ag17
ag17
aa(lp18
g14
ag14
ag14
ag14
ag14
aa.