(lp0
(lp1
S'uint32'
p2
aS'uint32'
p3
aS'uint32'
p4
aa(lp5
S'BlockSize'
p6
aS'NumCreated'
p7
aS'NumFree'
p8
aa(lp9
S''
p10
ag10
ag10
aa(lp11
S'Number of bytes in each of these blocks.'
p12
aS'Number of Memory Blocks of this size created.'
p13
aS'Number of Memory Blocks of this size that are free.'
p14
aa(lp15
S'--word'
p16
ag16
ag16
aa(lp17
g10
ag10
ag10
aa.