(lp0
(lp1
S'uint8'
p2
aS'uint8'
p3
aa(lp4
S'Priority'
p5
aS'Reliability'
p6
aa(lp7
S''
p8
ag8
aa(lp9
S'Specify high(1) or low(0) message priority for off-board routing, currently unused.'
p10
aS'Specify high(1) or low(0) message transfer reliability for off-board routing, currently unused.'
p11
aa(lp12
S'--byte'
p13
ag13
aa(lp14
g8
ag8
aa.