(lp0
(lp1
S'uint32'
p2
aS'uint32'
p3
aS'uint32'
p4
aS'uint32'
p5
aS'uint32'
p6
aS'uint32'
p7
aS'uint32'
p8
aS'uint32'
p9
aS'uint32'
p10
aS'uint32'
p11
aS'uint32'
p12
aS'uint32'
p13
aS'uint32'
p14
aS'uint32'
p15
aS'uint32'
p16
aa(lp17
S'MsgIdsInUse'
p18
aS'PeakMsgIdsInUse'
p19
aS'MaxMsgIdsAllowed'
p20
aS'PipesInUse'
p21
aS'PeakPipesInUse'
p22
aS'MaxPipesAllowed'
p23
aS'MemInUse'
p24
aS'PeakMemInUse'
p25
aS'MaxMemAllowed'
p26
aS'SubscriptionsInUse'
p27
aS'PeakSubscriptionsInUse'
p28
aS'MaxSubscriptionsAllowed'
p29
aS'SBBuffersInUse'
p30
aS'PeakSBBuffersInUse'
p31
aS'MaxPipeDepthAllowed'
p32
aa(lp33
S''
p34
ag34
ag34
ag34
ag34
ag34
ag34
ag34
ag34
ag34
ag34
ag34
ag34
ag34
ag34
aa(lp35
S'Current number of MsgIds with a destination.'
p36
aS'Peak number of MsgIds with a destination.'
p37
aS'cFE Cfg Param CFE_SB_MAX_MSG_IDS'
p38
aS'Number of pipes currently in use.'
p39
aS'Peak number of pipes since last reboot.'
p40
aS'cFE Cfg Param CFE_SB_MAX_PIPES'
p41
aS'Memory bytes currently in use for SB msg transfers.'
p42
aS'Peak memory bytes in use for SB msg transfers.'
p43
aS'cFE Cfg Param CFE_SB_BUF_MEMORY_BYTES'
p44
aS'Number of current subscriptions.'
p45
aS'Peak number of subscriptions.'
p46
aS'product of CFE_SB_MAX_MSG_IDS and CFE_SB_MAX_DEST_PER_PKT'
p47
aS'Number of SB message buffers currently in use.'
p48
aS'Max number of SB message buffers in use.'
p49
aS'cFE Cfg Param CFE_SB_MAX_PIPE_DEPTH CFE_SB_PipeDepthStats_t PipeDepthStats [CFE_SB_MAX_PIPES] Pipe Depth Statistics CFE_SB_PipeDepthStats_t .'
p50
aa(lp51
S'--word'
p52
ag52
ag52
ag52
ag52
ag52
ag52
ag52
ag52
ag52
ag52
ag52
ag52
ag52
ag52
aa(lp53
g34
ag34
ag34
ag34
ag34
ag34
ag34
ag34
ag34
ag34
ag34
ag34
ag34
ag34
ag34
aa.