(lp0
(lp1
S'uint8'
p2
aS'uint16'
p3
aS'uint16'
p4
aa(lp5
S'AppName'
p6
aS'EventID'
p7
aS'Mask'
p8
aa(lp9
S'[OS_MAX_API_NAME]'
p10
aS''
p11
ag11
aa(lp12
S'Application name to use in the command.'
p13
aS'Event ID to use in the command.'
p14
aS'Mask to use in the command.'
p15
aa(lp16
S'--string'
p17
aS'--half'
p18
ag18
aa(lp19
S'20'
p20
ag11
ag11
aa.