(lp0
(lp1
S'boolean'
p2
aS'uint32'
p3
aa(lp4
S'RecordUsed'
p5
aS'Type'
p6
aa(lp7
S''
p8
ag8
aa(lp9
g8
aS'CFE_ES_AppStartParams_t StartParams CFE_ES_AppState_t StateRecord CFE_ES_MainTaskInfo_t TaskInfo'
p10
aa(lp11
S'--byte'
p12
aS'--word'
p13
aa(lp14
g8
ag8
aa.