(lp0
(lp1
S'uint32'
p2
aS'uint32'
p3
aS'uint32'
p4
aS'uint32'
p5
aa(lp6
S'DebugFlag'
p7
aS'WatchdogWriteFlag'
p8
aS'PrintfEnabledFlag'
p9
aS'LastAppId'
p10
aa(lp11
S''
p12
ag12
ag12
ag12
aa(lp13
g12
ag12
ag12
ag12
aa(lp14
S'--word'
p15
ag15
ag15
ag15
aa(lp16
g12
ag12
ag12
ag12
aa.