(lp0
(lp1
S'CFE_SB_MsgId_t'
p2
aS'uint16'
p3
aS'CFE_SB_Qos_t'
p4
aS'uint8'
p5
aa(lp6
S'Stream'
p7
aS'PktSize'
p8
aS'Flags'
p9
aS'BufLimit'
p10
aa(lp11
S''
p12
ag12
ag12
ag12
aa(lp13
g12
ag12
ag12
ag12
aa(lp14
S'--half'
p15
aS'--half'
p16
aS'--half'
p17
aS'--byte'
p18
aa(lp19
g12
ag12
ag12
ag12
aa.