(lp0
(lp1
S'Add Delta to Spacecraft Time Correlation Factor each 1Hz'
p2
aS'Add Delta to Spacecraft Time Correlation Factor'
p3
aS'Add Time to Tone Time Delay'
p4
aS'Request TIME Diagnostic Telemetry'
p5
aS'Time No-Op'
p6
aS'Time Reset Counters'
p7
aS'Set Leap Seconds'
p8
aS'Set Mission Elapsed Time'
p9
aS'Set Tone Signal Source'
p10
aS'Set Time Source'
p11
aS'Set Time State'
p12
aS'Set Spacecraft Time Correlation Factor'
p13
aS'Set Spacecraft Time'
p14
aS'Subtract Delta from Spacecraft Time Correlation Factor each 1Hz'
p15
aS'Subtract Delta from Spacecraft Time Correlation Factor'
p16
aS'Subtract Time from Tone Time Delay'
p17
aa(lp18
S'13'
p19
aS'11'
p20
aS'5'
p21
aS'2'
p22
aS'0'
p23
aS'1'
p24
aS'10'
p25
aS'8'
p26
aS'15'
p27
aS'3'
p28
aS'4'
p29
aS'9'
p30
aS'7'
p31
aS'14'
p32
aS'12'
p33
aS'6'
p34
aa(lp35
S'struct_c_f_e___t_i_m_e__1_hz_adj_cmd__t'
p36
aS'struct_c_f_e___t_i_m_e___time_cmd__t'
p37
aS'struct_c_f_e___t_i_m_e___time_cmd__t'
p38
aS'struct_c_f_e___t_i_m_e___no_args_cmd__t'
p39
aS'struct_c_f_e___t_i_m_e___no_args_cmd__t'
p40
aS'struct_c_f_e___t_i_m_e___no_args_cmd__t'
p41
aS'struct_c_f_e___t_i_m_e___time_cmd__t'
p42
aS'struct_c_f_e___t_i_m_e___time_cmd__t'
p43
aS'struct_c_f_e___t_i_m_e___signal_cmd__t'
p44
aS'struct_c_f_e___t_i_m_e___source_cmd__t'
p45
aS'struct_c_f_e___t_i_m_e___state_cmd__t'
p46
aS'struct_c_f_e___t_i_m_e___time_cmd__t'
p47
aS'struct_c_f_e___t_i_m_e___time_cmd__t'
p48
aS'struct_c_f_e___t_i_m_e__1_hz_adj_cmd__t'
p49
aS'struct_c_f_e___t_i_m_e___time_cmd__t'
p50
aS'struct_c_f_e___t_i_m_e___time_cmd__t'
p51
aa.