(lp0
(lp1
S'Add Application Event Filter'
p2
aS'Clear Event Log'
p3
aS'Delete Application Event Filter'
p4
aS'Disable Application Event Type'
p5
aS'Disable Event Services for an Application'
p6
aS'Disable Event Type'
p7
aS'Disable Event Services Output Ports'
p8
aS'Enable Application Event Type'
p9
aS'Enable Event Services for an Application'
p10
aS'Enable Event Type'
p11
aS'Enable Event Services Output Ports'
p12
aS'Write Event Services Application Information to File'
p13
aS'Write Event Log to File'
p14
aS'Event Services No-Op'
p15
aS'Reset All Event Filters for an Application'
p16
aS'Reset Application Event Counters'
p17
aS'Event Services Reset Counters'
p18
aS'Reset an Event Filter for an Application'
p19
aS'Set Event Format Mode'
p20
aS'Set Application Event Filter'
p21
aS'Set Logging Mode'
p22
aa(lp23
S'15'
p24
aS'20'
p25
aS'16'
p26
aS'6'
p27
aS'8'
p28
aS'3'
p29
aS'12'
p30
aS'5'
p31
aS'7'
p32
aS'2'
p33
aS'11'
p34
aS'17'
p35
aS'18'
p36
aS'0'
p37
aS'14'
p38
aS'9'
p39
aS'1'
p40
aS'13'
p41
aS'4'
p42
aS'10'
p43
aS'19'
p44
aa(lp45
S'struct_c_f_e___e_v_s___app_name_event_i_d_mask_cmd__t'
p46
aS'struct_c_f_e___t_b_l___no_args_cmd__t'
p47
aS'struct_c_f_e___e_v_s___app_name_event_i_d_mask_cmd__t'
p48
aS'struct_c_f_e___e_v_s___app_name_bit_mask_cmd__t'
p49
aS'struct_c_f_e___e_v_s___app_name_cmd__t'
p50
aS'struct_c_f_e___e_v_s___bit_mask_cmd__t'
p51
aS'struct_c_f_e___e_v_s___bit_mask_cmd__t'
p52
aS'struct_c_f_e___e_v_s___app_name_bit_mask_cmd__t'
p53
aS'struct_c_f_e___e_v_s___app_name_cmd__t'
p54
aS'struct_c_f_e___e_v_s___bit_mask_cmd__t'
p55
aS'struct_c_f_e___e_v_s___bit_mask_cmd__t'
p56
aS'struct_c_f_e___e_v_s___app_data_cmd__t'
p57
aS'struct_c_f_e___e_v_s___log_file_cmd__t'
p58
aS'struct_c_f_e___t_b_l___no_args_cmd__t'
p59
aS'struct_c_f_e___e_v_s___app_name_cmd__t'
p60
aS'struct_c_f_e___e_v_s___app_name_cmd__t'
p61
aS'struct_c_f_e___t_b_l___no_args_cmd__t'
p62
aS'struct_c_f_e___e_v_s___app_name_event_i_d_cmd__t'
p63
aS'struct_c_f_e___e_v_s___mode_cmd__t'
p64
aS'struct_c_f_e___e_v_s___app_name_event_i_d_mask_cmd__t'
p65
aS'struct_c_f_e___e_v_s___mode_cmd__t'
p66
aa.