(lp0
(lp1
S'Abort Table Load'
p2
aS'Activate Table'
p3
aS'Delete Critical Table from Critical Data Store'
p4
aS'Dump Table'
p5
aS'Dump Table Registry'
p6
aS'Load Table'
p7
aS'Table No-Op'
p8
aS'Table Reset Counters'
p9
aS'Telemeter One Table Registry Entry'
p10
aS'Validate Table'
p11
aa(lp12
S'9'
p13
aS'5'
p14
aS'8'
p15
aS'3'
p16
aS'6'
p17
aS'2'
p18
aS'0'
p19
aS'1'
p20
aS'7'
p21
aS'4'
p22
aa(lp23
S'struct_c_f_e___t_b_l___abort_ld_cmd__t'
p24
aS'struct_c_f_e___t_b_l___activate_cmd__t'
p25
aS'struct_c_f_e___t_b_l___del_c_d_s_cmd__t'
p26
aS'struct_c_f_e___t_b_l___dump_cmd__t'
p27
aS'struct_c_f_e___t_b_l___dump_reg_cmd__t'
p28
aS'struct_c_f_e___t_b_l___load_cmd__t'
p29
aS'struct_c_f_e___t_b_l___no_args_cmd__t'
p30
aS'struct_c_f_e___t_b_l___no_args_cmd__t'
p31
aS'struct_c_f_e___t_b_l___tlm_reg_cmd__t'
p32
aS'struct_c_f_e___t_b_l___validate_cmd__t'
p33
aa.