(lp0
(lp1
S'Clears the contents of the Exeception and Reset Log'
p2
aS'Clear Executive Services System Log'
p3
aS'Delete Critical Data Store'
p4
aS'Dump Critical Data Store Registry to a File'
p5
aS'Executive Services No-Op'
p6
aS'Set Executive Services System Log Mode to Discard/Overwrite'
p7
aS"Set Performance Analyzer's Filter Masks"
p8
aS"Set Performance Analyzer's Trigger Masks"
p9
aS'Start Performance Analyzer'
p10
aS'Stop Performance Analyzer'
p11
aS'Writes all Executive Services Information on All Applications to a File'
p12
aS'Writes a list of All Executive Services Tasks to a File'
p13
aS'Request Executive Services Information on a Specified Application'
p14
aS'Stops, Unloads, Loads from a File and Restarts an Application'
p15
aS'Executive Services Reset Counters'
p16
aS'Resets the Processor Reset Counter to Zero'
p17
aS'Stops and Restarts an Application'
p18
aS'Executive Services Processor / Power-On Reset'
p19
aS'Configure the Maximum Number of Processor Resets before a Power-On Reset'
p20
aS'Executive Services O/S Shell Command'
p21
aS'Load and Start an Application'
p22
aS'Stop and Unload Application'
p23
aS'Telemeter Memory Pool Statistics'
p24
aS'Writes Exeception and Reset Log to a File'
p25
aS'Writes contents of Executive Services System Log to a File'
p26
aa(lp27
S'12'
p28
aS'10'
p29
aS'21'
p30
aS'23'
p31
aS'0'
p32
aS'18'
p33
aS'16'
p34
aS'17'
p35
aS'14'
p36
aS'15'
p37
aS'9'
p38
aS'24'
p39
aS'8'
p40
aS'7'
p41
aS'1'
p42
aS'19'
p43
aS'6'
p44
aS'2'
p45
aS'20'
p46
aS'3'
p47
aS'4'
p48
aS'5'
p49
aS'22'
p50
aS'13'
p51
aS'11'
p52
aa(lp53
S'struct_c_f_e___e_s___no_args_cmd__t'
p54
aS'struct_c_f_e___e_s___no_args_cmd__t'
p55
aS'struct_c_f_e___e_s___delete_c_d_s_cmd__t'
p56
aS'struct_c_f_e___e_s___dump_c_d_s_reg_cmd__t'
p57
aS'struct_c_f_e___e_s___no_args_cmd__t'
p58
aS'struct_c_f_e___e_s___over_write_sys_log_cmd__t'
p59
aS'struct_c_f_e___e_s___perf_set_filter_mask_cmd__t'
p60
aS'struct_c_f_e___e_s___perf_set_trig_mask_cmd__t'
p61
aS'struct_c_f_e___e_s___perf_start_cmd__t'
p62
aS'struct_c_f_e___e_s___perf_stop_cmd__t'
p63
aS'struct_c_f_e___e_s___query_all_cmd__t'
p64
aS'struct_c_f_e___e_s___query_all_tasks_cmd__t'
p65
aS'struct_c_f_e___e_s___app_name_cmd__t'
p66
aS'struct_c_f_e___e_s___app_reload_cmd__t'
p67
aS'struct_c_f_e___e_s___no_args_cmd__t'
p68
aS'struct_c_f_e___e_s___no_args_cmd__t'
p69
aS'struct_c_f_e___e_s___app_name_cmd__t'
p70
aS'struct_c_f_e___e_s___restart_cmd__t'
p71
aS'struct_c_f_e___e_s___set_max_p_r_count_cmd__t'
p72
aS'struct_c_f_e___e_s___shell_cmd__t'
p73
aS'struct_c_f_e___e_s___start_app_cmd__t'
p74
aS'struct_c_f_e___e_s___app_name_cmd__t'
p75
aS'struct_c_f_e___e_s___tlm_pool_stats_cmd__t'
p76
aS'struct_c_f_e___e_s___write_e_rlog_cmd__t'
p77
aS'struct_c_f_e___e_s___write_syslog_cmd__t'
p78
aa.