(lp0
(lp1
S'CI_NOOP_CC'
p2
aS'CI_RESET_COUNTERS_CC'
p3
aS'CI_MODIFY_PDU_FILESIZE_CC'
p4
aS'CI_CORRUPT_PDU_CHECKSUM_CC'
p5
aS'CI_DROP_PDUS_CC'
p6
aS'CI_CAPTURE_PDUS_CC'
p7
aS'CI_STOP_PDU_CAPTURE_CC'
p8
aa(lp9
S'0'
p10
aS'1'
p11
aS'2'
p12
aS'3'
p13
aS'4'
p14
aS'5'
p15
aS'6'
p16
aag1
a.